target datalayout = "e-m:e-p270:32:32-p271:32:32-p272:64:64-i64:64-i128:128-f80:128-n8:16:32:64-S128"
target triple = "x86_64-pc-linux-gnu"

@g_ascii_table = external constant ptr, align 8
@.str.198 = private unnamed_addr constant [18 x i8] c"%d,%d,%d,%d,%d,%d\00", align 1

; Function Attrs: null_pointer_is_valid sspstrong uwtable
define internal zeroext i1 @parse_port_pasv(ptr noundef %0, i32 noundef %1, i32 noundef %2, ptr noundef %3, ptr noundef %4, ptr noundef %5, ptr noundef %6, ptr noundef %7) #0 {
  %9 = alloca ptr, align 8
  %10 = alloca i32, align 4
  %11 = alloca i32, align 4
  %12 = alloca ptr, align 8
  %13 = alloca ptr, align 8
  %14 = alloca ptr, align 8
  %15 = alloca ptr, align 8
  %16 = alloca ptr, align 8
  %17 = alloca ptr, align 8
  %18 = alloca ptr, align 8
  %19 = alloca i8, align 1
  %20 = alloca i32, align 4
  %21 = alloca [4 x i32], align 16
  %22 = alloca [2 x i32], align 4
  %23 = alloca i8, align 1
  %24 = alloca i32, align 4
  %25 = alloca i32, align 4
  %26 = alloca i32, align 4
  store ptr %0, ptr %9, align 8
  store i32 %1, ptr %10, align 4
  store i32 %2, ptr %11, align 4
  store ptr %3, ptr %12, align 8
  store ptr %4, ptr %13, align 8
  store ptr %5, ptr %14, align 8
  store ptr %6, ptr %15, align 8
  store ptr %7, ptr %16, align 8
  call void @llvm.lifetime.start.p0(i64 8, ptr %17) #16
  call void @llvm.lifetime.start.p0(i64 8, ptr %18) #16
  call void @llvm.lifetime.start.p0(i64 1, ptr %19) #16
  call void @llvm.lifetime.start.p0(i64 4, ptr %20) #16
  call void @llvm.lifetime.start.p0(i64 16, ptr %21) #16
  call void @llvm.lifetime.start.p0(i64 8, ptr %22) #16
  call void @llvm.lifetime.start.p0(i64 1, ptr %23) #16
  store i8 0, ptr %23, align 1
  %27 = call ptr @wmem_packet_scope()
  %28 = load i32, ptr %11, align 4
  %29 = add i32 %28, 1
  %30 = sext i32 %29 to i64
  %31 = call noalias ptr @wmem_alloc(ptr noundef %27, i64 noundef %30) #17
  store ptr %31, ptr %17, align 8
  %32 = load ptr, ptr %9, align 8
  %33 = load i32, ptr %10, align 4
  %34 = load ptr, ptr %17, align 8
  %35 = load i32, ptr %11, align 4
  %36 = add i32 %35, 1
  %37 = sext i32 %36 to i64
  %38 = call i32 @tvb_get_raw_bytes_as_string(ptr noundef %32, i32 noundef %33, ptr noundef %34, i64 noundef %37)
  %39 = load ptr, ptr %17, align 8
  store ptr %39, ptr %18, align 8
  br label %40

40:                                               ; preds = %231, %8
  br label %41

41:                                               ; preds = %58, %40
  %42 = load ptr, ptr %18, align 8
  %43 = load i8, ptr %42, align 1
  store i8 %43, ptr %19, align 1
  %44 = zext i8 %43 to i32
  %45 = icmp ne i32 %44, 0
  br i1 %45, label %46, label %56

46:                                               ; preds = %41
  %47 = load ptr, ptr @g_ascii_table, align 8
  %48 = load i8, ptr %19, align 1
  %49 = zext i8 %48 to i64
  %50 = getelementptr i16, ptr %47, i64 %49
  %51 = load i16, ptr %50, align 2
  %52 = zext i16 %51 to i32
  %53 = and i32 %52, 8
  %54 = icmp ne i32 %53, 0
  %55 = xor i1 %54, true
  br label %56

56:                                               ; preds = %46, %41
  %57 = phi i1 [ false, %41 ], [ %55, %46 ]
  br i1 %57, label %58, label %61

58:                                               ; preds = %56
  %59 = load ptr, ptr %18, align 8
  %60 = getelementptr i8, ptr %59, i32 1
  store ptr %60, ptr %18, align 8
  br label %41, !llvm.loop !12

61:                                               ; preds = %56
  %62 = load ptr, ptr %18, align 8
  %63 = load i8, ptr %62, align 1
  %64 = sext i8 %63 to i32
  %65 = icmp eq i32 %64, 0
  br i1 %65, label %66, label %67

66:                                               ; preds = %61
  br label %232

67:                                               ; preds = %61
  %68 = load ptr, ptr %18, align 8
  %69 = getelementptr [4 x i32], ptr %21, i64 0, i64 0
  %70 = getelementptr [4 x i32], ptr %21, i64 0, i64 1
  %71 = getelementptr [4 x i32], ptr %21, i64 0, i64 2
  %72 = getelementptr [4 x i32], ptr %21, i64 0, i64 3
  %73 = getelementptr [2 x i32], ptr %22, i64 0, i64 0
  %74 = getelementptr [2 x i32], ptr %22, i64 0, i64 1
  %75 = call i32 (ptr, ptr, ...) @__isoc99_sscanf(ptr noundef %68, ptr noundef @.str.198, ptr noundef %69, ptr noundef %70, ptr noundef %71, ptr noundef %72, ptr noundef %73, ptr noundef %74) #16
  store i32 %75, ptr %20, align 4
  %76 = load i32, ptr %20, align 4
  %77 = icmp eq i32 %76, 6
  br i1 %77, label %78, label %211

78:                                               ; preds = %67
  %79 = getelementptr [2 x i32], ptr %22, i64 0, i64 0
  %80 = load i32, ptr %79, align 4
  %81 = and i32 %80, 255
  %82 = shl i32 %81, 8
  %83 = getelementptr [2 x i32], ptr %22, i64 0, i64 1
  %84 = load i32, ptr %83, align 4
  %85 = and i32 %84, 255
  %86 = or i32 %82, %85
  %87 = trunc i32 %86 to i16
  %88 = load ptr, ptr %13, align 8
  store i16 %87, ptr %88, align 2
  call void @llvm.lifetime.start.p0(i64 4, ptr %24) #16
  call void @llvm.lifetime.start.p0(i64 4, ptr %25) #16
  %89 = getelementptr [4 x i32], ptr %21, i64 0, i64 0
  %90 = load i32, ptr %89, align 16
  %91 = shl i32 %90, 24
  %92 = getelementptr [4 x i32], ptr %21, i64 0, i64 1
  %93 = load i32, ptr %92, align 4
  %94 = shl i32 %93, 16
  %95 = or i32 %91, %94
  %96 = getelementptr [4 x i32], ptr %21, i64 0, i64 2
  %97 = load i32, ptr %96, align 8
  %98 = shl i32 %97, 8
  %99 = or i32 %95, %98
  %100 = getelementptr [4 x i32], ptr %21, i64 0, i64 3
  %101 = load i32, ptr %100, align 4
  %102 = or i32 %99, %101
  store i32 %102, ptr %25, align 4
  %103 = load i32, ptr %25, align 4
  %104 = call i1 @llvm.is.constant.i32(i32 %103)
  br i1 %104, label %105, label %121

105:                                              ; preds = %78
  %106 = load i32, ptr %25, align 4
  %107 = and i32 %106, 255
  %108 = shl i32 %107, 24
  %109 = load i32, ptr %25, align 4
  %110 = and i32 %109, 65280
  %111 = shl i32 %110, 8
  %112 = or i32 %108, %111
  %113 = load i32, ptr %25, align 4
  %114 = and i32 %113, 16711680
  %115 = lshr i32 %114, 8
  %116 = or i32 %112, %115
  %117 = load i32, ptr %25, align 4
  %118 = and i32 %117, -16777216
  %119 = lshr i32 %118, 24
  %120 = or i32 %116, %119
  store i32 %120, ptr %24, align 4
  br label %124

121:                                              ; preds = %78
  %122 = load i32, ptr %25, align 4
  %123 = call i32 asm "bswapl $0", "=r,0,~{dirflag},~{fpsr},~{flags}"(i32 %122) #21, !srcloc !13
  store i32 %123, ptr %24, align 4
  br label %124

124:                                              ; preds = %121, %105
  %125 = load i32, ptr %24, align 4
  store i32 %125, ptr %26, align 4
  call void @llvm.lifetime.end.p0(i64 4, ptr %25) #16
  call void @llvm.lifetime.end.p0(i64 4, ptr %24) #16
  %126 = load i32, ptr %26, align 4
  %127 = load ptr, ptr %12, align 8
  store i32 %126, ptr %127, align 4
  %128 = load ptr, ptr %18, align 8
  %129 = load ptr, ptr %17, align 8
  %130 = ptrtoint ptr %128 to i64
  %131 = ptrtoint ptr %129 to i64
  %132 = sub i64 %130, %131
  %133 = trunc i64 %132 to i32
  %134 = load ptr, ptr %14, align 8
  store i32 %133, ptr %134, align 4
  %135 = getelementptr [2 x i32], ptr %22, i64 0, i64 0
  %136 = load i32, ptr %135, align 4
  %137 = icmp slt i32 %136, 10
  br i1 %137, label %138, label %139

138:                                              ; preds = %124
  br label %144

139:                                              ; preds = %124
  %140 = getelementptr [2 x i32], ptr %22, i64 0, i64 0
  %141 = load i32, ptr %140, align 4
  %142 = icmp slt i32 %141, 100
  %143 = select i1 %142, i32 2, i32 3
  br label %144

144:                                              ; preds = %139, %138
  %145 = phi i32 [ 1, %138 ], [ %143, %139 ]
  %146 = add i32 %145, 1
  %147 = getelementptr [2 x i32], ptr %22, i64 0, i64 1
  %148 = load i32, ptr %147, align 4
  %149 = icmp slt i32 %148, 10
  br i1 %149, label %150, label %151

150:                                              ; preds = %144
  br label %156

151:                                              ; preds = %144
  %152 = getelementptr [2 x i32], ptr %22, i64 0, i64 1
  %153 = load i32, ptr %152, align 4
  %154 = icmp slt i32 %153, 100
  %155 = select i1 %154, i32 2, i32 3
  br label %156

156:                                              ; preds = %151, %150
  %157 = phi i32 [ 1, %150 ], [ %155, %151 ]
  %158 = add i32 %146, %157
  %159 = load ptr, ptr %16, align 8
  store i32 %158, ptr %159, align 4
  %160 = getelementptr [4 x i32], ptr %21, i64 0, i64 0
  %161 = load i32, ptr %160, align 16
  %162 = icmp slt i32 %161, 10
  br i1 %162, label %163, label %164

163:                                              ; preds = %156
  br label %169

164:                                              ; preds = %156
  %165 = getelementptr [4 x i32], ptr %21, i64 0, i64 0
  %166 = load i32, ptr %165, align 16
  %167 = icmp slt i32 %166, 100
  %168 = select i1 %167, i32 2, i32 3
  br label %169

169:                                              ; preds = %164, %163
  %170 = phi i32 [ 1, %163 ], [ %168, %164 ]
  %171 = add i32 %170, 1
  %172 = getelementptr [4 x i32], ptr %21, i64 0, i64 1
  %173 = load i32, ptr %172, align 4
  %174 = icmp slt i32 %173, 10
  br i1 %174, label %175, label %176

175:                                              ; preds = %169
  br label %181

176:                                              ; preds = %169
  %177 = getelementptr [4 x i32], ptr %21, i64 0, i64 1
  %178 = load i32, ptr %177, align 4
  %179 = icmp slt i32 %178, 100
  %180 = select i1 %179, i32 2, i32 3
  br label %181

181:                                              ; preds = %176, %175
  %182 = phi i32 [ 1, %175 ], [ %180, %176 ]
  %183 = add i32 %171, %182
  %184 = add i32 %183, 1
  %185 = getelementptr [4 x i32], ptr %21, i64 0, i64 2
  %186 = load i32, ptr %185, align 8
  %187 = icmp slt i32 %186, 10
  br i1 %187, label %188, label %189

188:                                              ; preds = %181
  br label %194

189:                                              ; preds = %181
  %190 = getelementptr [4 x i32], ptr %21, i64 0, i64 2
  %191 = load i32, ptr %190, align 8
  %192 = icmp slt i32 %191, 100
  %193 = select i1 %192, i32 2, i32 3
  br label %194

194:                                              ; preds = %189, %188
  %195 = phi i32 [ 1, %188 ], [ %193, %189 ]
  %196 = add i32 %184, %195
  %197 = add i32 %196, 1
  %198 = getelementptr [4 x i32], ptr %21, i64 0, i64 3
  %199 = load i32, ptr %198, align 4
  %200 = icmp slt i32 %199, 10
  br i1 %200, label %201, label %202

201:                                              ; preds = %194
  br label %207

202:                                              ; preds = %194
  %203 = getelementptr [4 x i32], ptr %21, i64 0, i64 3
  %204 = load i32, ptr %203, align 4
  %205 = icmp slt i32 %204, 100
  %206 = select i1 %205, i32 2, i32 3
  br label %207

207:                                              ; preds = %202, %201
  %208 = phi i32 [ 1, %201 ], [ %206, %202 ]
  %209 = add i32 %197, %208
  %210 = load ptr, ptr %15, align 8
  store i32 %209, ptr %210, align 4
  store i8 1, ptr %23, align 1
  br label %232

211:                                              ; preds = %67
  br label %212

212:                                              ; preds = %228, %211
  %213 = load ptr, ptr %18, align 8
  %214 = load i8, ptr %213, align 1
  store i8 %214, ptr %19, align 1
  %215 = zext i8 %214 to i32
  %216 = icmp ne i32 %215, 0
  br i1 %216, label %217, label %226

217:                                              ; preds = %212
  %218 = load ptr, ptr @g_ascii_table, align 8
  %219 = load i8, ptr %19, align 1
  %220 = zext i8 %219 to i64
  %221 = getelementptr i16, ptr %218, i64 %220
  %222 = load i16, ptr %221, align 2
  %223 = zext i16 %222 to i32
  %224 = and i32 %223, 8
  %225 = icmp ne i32 %224, 0
  br label %226

226:                                              ; preds = %217, %212
  %227 = phi i1 [ false, %212 ], [ %225, %217 ]
  br i1 %227, label %228, label %231

228:                                              ; preds = %226
  %229 = load ptr, ptr %18, align 8
  %230 = getelementptr i8, ptr %229, i32 1
  store ptr %230, ptr %18, align 8
  br label %212, !llvm.loop !14

231:                                              ; preds = %226
  br label %40

232:                                              ; preds = %207, %66
  %233 = load i8, ptr %23, align 1, !range !6, !noundef !7
  %234 = trunc i8 %233 to i1
  call void @llvm.lifetime.end.p0(i64 1, ptr %23) #16
  call void @llvm.lifetime.end.p0(i64 8, ptr %22) #16
  call void @llvm.lifetime.end.p0(i64 16, ptr %21) #16
  call void @llvm.lifetime.end.p0(i64 4, ptr %20) #16
  call void @llvm.lifetime.end.p0(i64 1, ptr %19) #16
  call void @llvm.lifetime.end.p0(i64 8, ptr %18) #16
  call void @llvm.lifetime.end.p0(i64 8, ptr %17) #16
  ret i1 %234
}