; Function Attrs: null_pointer_is_valid sspstrong uwtable
define internal fastcc noundef zeroext i1 @parse_port_pasv(ptr noundef %0, i32 noundef %1, i32 noundef %2, ptr noundef writeonly captures(none) %3, ptr noundef writeonly captures(none) %4, ptr noundef writeonly captures(none) %5, ptr noundef writeonly captures(none) %6, ptr noundef writeonly captures(none) %7) unnamed_addr #0 {
  %9 = alloca [4 x i32], align 16
  %10 = alloca [2 x i32], align 4
  call void @llvm.lifetime.start.p0(i64 16, ptr nonnull %9) #12
  call void @llvm.lifetime.start.p0(i64 8, ptr nonnull %10) #12
  %11 = tail call ptr @wmem_packet_scope()
  %12 = add i32 %2, 1
  %13 = sext i32 %12 to i64
  %14 = tail call noalias ptr @wmem_alloc(ptr noundef %11, i64 noundef %13) #13
  %15 = tail call i32 @tvb_get_raw_bytes_as_string(ptr noundef %0, i32 noundef %1, ptr noundef %14, i64 noundef %13)
  %16 = load i8, ptr %14, align 1
  %.not4354.not = icmp eq i8 %16, 0
  br i1 %.not4354.not, label %.critedge, label %.lr.ph.lr.ph

.lr.ph.lr.ph:                                     ; preds = %8
  %17 = load ptr, ptr @g_ascii_table, align 8
  %18 = getelementptr inbounds nuw i8, ptr %9, i64 4
  %19 = getelementptr inbounds nuw i8, ptr %9, i64 8
  %20 = getelementptr inbounds nuw i8, ptr %9, i64 12
  %21 = getelementptr inbounds nuw i8, ptr %10, i64 4
  br label %.lr.ph

.lr.ph:                                           ; preds = %.lr.ph.backedge, %.lr.ph.lr.ph
  %22 = phi i8 [ %16, %.lr.ph.lr.ph ], [ %.be, %.lr.ph.backedge ]
  %.144 = phi ptr [ %14, %.lr.ph.lr.ph ], [ %.144.be, %.lr.ph.backedge ]
  %23 = zext i8 %22 to i64
  %24 = getelementptr i16, ptr %17, i64 %23
  %25 = load i16, ptr %24, align 2
  %26 = and i16 %25, 8
  %.not34 = icmp eq i16 %26, 0
  br i1 %.not34, label %27, label %30

27:                                               ; preds = %.lr.ph
  %28 = getelementptr i8, ptr %.144, i64 1
  %29 = load i8, ptr %28, align 1
  %.not.not = icmp eq i8 %29, 0
  br i1 %.not.not, label %.critedge, label %.lr.ph.backedge

.lr.ph.backedge:                                  ; preds = %.lr.ph50, %27
  %.be = phi i8 [ %29, %27 ], [ %84, %.lr.ph50 ]
  %.144.be = phi ptr [ %28, %27 ], [ %.249, %.lr.ph50 ]
  br label %.lr.ph, !llvm.loop !18

30:                                               ; preds = %.lr.ph
  %31 = call i32 (ptr, ptr, ...) @__isoc99_sscanf(ptr noundef %.144, ptr noundef nonnull @.str.198, ptr noundef nonnull %9, ptr noundef nonnull %18, ptr noundef nonnull %19, ptr noundef nonnull %20, ptr noundef nonnull %10, ptr noundef nonnull %21) #12
  %32 = icmp eq i32 %31, 6
  br i1 %32, label %34, label %.preheader

.preheader:                                       ; preds = %30
  %33 = load i8, ptr %.144, align 1
  %.not3548 = icmp eq i8 %33, 0
  br i1 %.not3548, label %.critedge, label %.lr.ph50

34:                                               ; preds = %30
  %35 = load i32, ptr %10, align 4
  %36 = shl i32 %35, 8
  %37 = load i32, ptr %21, align 4
  %38 = and i32 %37, 255
  %39 = or disjoint i32 %38, %36
  %40 = trunc i32 %39 to i16
  store i16 %40, ptr %4, align 2
  %41 = load i32, ptr %9, align 16
  %42 = load i32, ptr %18, align 4
  %43 = load i32, ptr %19, align 8
  %44 = load i32, ptr %20, align 4
  %45 = shl i32 %42, 16
  %46 = shl i32 %41, 24
  %47 = or i32 %45, %46
  %48 = shl i32 %43, 8
  %49 = or i32 %47, %48
  %50 = or i32 %49, %44
  %51 = call i32 asm "bswapl $0", "=r,0,~{dirflag},~{fpsr},~{flags}"(i32 %50) #17, !srcloc !19
  store i32 %51, ptr %3, align 4
  %52 = ptrtoint ptr %.144 to i64
  %53 = ptrtoint ptr %14 to i64
  %54 = sub i64 %52, %53
  %55 = trunc i64 %54 to i32
  store i32 %55, ptr %5, align 4
  %56 = icmp slt i32 %35, 10
  %57 = icmp slt i32 %35, 100
  %58 = select i1 %57, i32 3, i32 4
  %59 = select i1 %56, i32 2, i32 %58
  %60 = icmp slt i32 %37, 10
  %61 = icmp slt i32 %37, 100
  %62 = select i1 %61, i32 2, i32 3
  %63 = select i1 %60, i32 1, i32 %62
  %64 = add nuw nsw i32 %63, %59
  store i32 %64, ptr %7, align 4
  %65 = icmp slt i32 %41, 10
  %66 = icmp slt i32 %41, 100
  %67 = icmp slt i32 %42, 10
  %68 = icmp slt i32 %42, 100
  %69 = select i1 %68, i32 2, i32 3
  %70 = select i1 %67, i32 1, i32 %69
  %71 = icmp slt i32 %43, 10
  %72 = icmp slt i32 %43, 100
  %73 = select i1 %72, i32 2, i32 3
  %74 = select i1 %71, i32 1, i32 %73
  %75 = icmp slt i32 %44, 10
  %76 = icmp slt i32 %44, 100
  %77 = select i1 %76, i32 2, i32 3
  %78 = select i1 %75, i32 1, i32 %77
  %79 = select i1 %66, i32 5, i32 6
  %80 = select i1 %65, i32 4, i32 %79
  %81 = add nuw nsw i32 %80, %70
  %82 = add nuw nsw i32 %81, %74
  %83 = add nuw nsw i32 %82, %78
  store i32 %83, ptr %6, align 4
  br label %.critedge

.lr.ph50:                                         ; preds = %.preheader, %89
  %84 = phi i8 [ %91, %89 ], [ %33, %.preheader ]
  %.249 = phi ptr [ %90, %89 ], [ %.144, %.preheader ]
  %85 = zext i8 %84 to i64
  %86 = getelementptr i16, ptr %17, i64 %85
  %87 = load i16, ptr %86, align 2
  %88 = and i16 %87, 8
  %.not36 = icmp eq i16 %88, 0
  br i1 %.not36, label %.lr.ph.backedge, label %89

89:                                               ; preds = %.lr.ph50
  %90 = getelementptr i8, ptr %.249, i64 1
  %91 = load i8, ptr %90, align 1
  %.not35 = icmp eq i8 %91, 0
  br i1 %.not35, label %.critedge, label %.lr.ph50, !llvm.loop !20

.critedge:                                        ; preds = %.preheader, %27, %89, %8, %34
  %.not38 = phi i1 [ true, %34 ], [ false, %8 ], [ false, %89 ], [ false, %27 ], [ false, %.preheader ]
  call void @llvm.lifetime.end.p0(i64 8, ptr nonnull %10) #12
  call void @llvm.lifetime.end.p0(i64 16, ptr nonnull %9) #12
  ret i1 %.not38
}